Certificate:
    Data:
        Version: 3 (0x2)
        Serial Number:
            eb:51:ce:d1:52:cc:8f:41
        Signature Algorithm: sha256WithRSAEncryption
        Issuer: C=BR, ST=SC, L=SFS, O=Sandbox, CN=Certification Authority Certificate
        Validity
            Not Before: Apr 21 21:05:14 2022 GMT
            Not After : Jan 15 18:05:13 2025 GMT
        Subject: C=BR, ST=SC, L=SFS, O=Sandbox, CN=Sanbox Authority Certificate
        Subject Public Key Info:
            Public Key Algorithm: rsaEncryption
                RSA Public-Key: (4096 bit)
                Modulus:
                    00:d4:9f:b4:f1:ef:d4:f9:ac:00:33:43:71:e1:21:
                    27:01:60:94:c2:c3:be:91:d3:ac:79:42:30:d6:a7:
                    e7:32:d8:c9:72:db:66:de:02:d9:df:ad:3f:64:a3:
                    94:f1:65:96:61:09:39:33:12:ff:94:04:eb:41:53:
                    b8:0a:f7:ed:5a:9b:58:76:cd:cd:78:4b:20:fc:c4:
                    19:25:4c:18:1b:11:96:ac:cf:58:04:13:ed:94:29:
                    2d:24:e0:09:33:81:ae:3a:f5:df:d6:cd:3c:6b:0c:
                    9f:e7:26:9f:5d:f8:b8:9e:25:43:6b:3f:90:62:a1:
                    79:7f:7f:6a:68:61:9e:e6:fa:bb:b4:4c:df:8e:e5:
                    f4:31:16:26:6f:a7:d3:97:31:5a:6e:6c:51:ec:2c:
                    70:4c:9c:85:c7:57:45:d2:30:89:75:03:e3:a9:e1:
                    48:1c:17:7f:7f:ad:6b:01:96:37:48:bf:c6:bf:5e:
                    8b:35:25:e8:5f:83:e4:11:f1:7b:74:c5:f9:63:a8:
                    4b:66:75:86:19:5f:43:3c:b2:4f:01:00:aa:2c:d9:
                    29:36:17:5a:55:cf:ba:bf:ee:af:00:b4:a2:54:3e:
                    5f:62:2d:f2:52:b1:41:0f:0f:15:38:41:f7:97:9b:
                    72:6a:ed:cc:f3:1c:6d:99:e4:fe:dc:90:09:a4:ff:
                    31:3c:b0:13:ff:73:f3:2e:65:ca:1f:85:04:88:82:
                    1c:a8:52:7d:de:9c:2a:f2:ea:97:f7:5e:19:d0:e9:
                    9b:9f:0b:7b:4a:55:bc:b6:87:cd:4c:9a:9f:5e:b5:
                    d2:2a:76:b9:e2:ab:b8:bd:f0:53:e2:f7:2b:b6:72:
                    6a:6b:bc:e4:92:c3:9b:cf:38:3e:52:f3:de:8d:2f:
                    94:d6:1c:26:7a:b1:cf:5b:8b:eb:4c:2f:3a:ea:90:
                    4a:2a:42:7d:9b:c6:21:6c:c5:43:33:12:69:ff:c9:
                    b2:55:94:8f:67:63:92:a6:29:42:96:0e:eb:f9:3c:
                    8a:2b:be:67:66:de:af:1d:8d:7c:ce:8a:92:cc:60:
                    a8:30:ad:12:d0:69:66:14:a6:27:52:9b:c0:7b:25:
                    40:21:57:9c:77:0f:0b:28:7a:4d:0f:0e:ee:24:14:
                    07:94:70:0d:05:df:f9:79:9d:36:66:0d:78:0a:b0:
                    ea:04:87:a8:5a:aa:20:6b:f6:4b:f7:76:b6:32:31:
                    15:25:b2:3a:f1:76:a5:c1:a2:77:45:7c:7d:2c:80:
                    58:d9:81:31:b1:0d:25:7b:cd:3a:16:22:bd:9c:35:
                    9e:77:8e:a0:a3:a2:77:86:5f:a6:ac:cc:0a:f9:0b:
                    7a:b9:ab:95:1f:96:83:c9:3b:18:67:d7:88:ec:85:
                    64:8a:f9
                Exponent: 65537 (0x10001)
        X509v3 extensions:
            X509v3 Authority Key Identifier: 
                keyid:BC:8B:4A:55:C3:E2:DB:28:37:2E:1F:89:26:9F:A4:4C:EF:71:30:D6

            X509v3 Subject Key Identifier: 
                5C:C7:13:B1:4C:0E:2E:54:AA:62:6B:7A:AA:83:04:DD:16:34:FF:3F
            Netscape Comment: 
                OpenSSL Generated Certificate
            X509v3 Basic Constraints: 
                CA:FALSE
    Signature Algorithm: sha256WithRSAEncryption
         57:78:cc:e7:60:bc:65:dc:3d:59:d8:46:07:50:6e:c7:42:cb:
         eb:fc:73:77:3d:86:f8:d9:0c:59:69:ab:f9:4d:22:4b:6c:67:
         20:e0:13:ef:12:06:2a:55:87:a5:ff:70:76:c0:46:48:69:78:
         45:45:39:f4:a4:9c:2c:43:4a:4a:18:1f:66:8b:da:3c:19:db:
         81:99:ee:94:1f:75:c1:c1:06:cf:71:2a:b1:0e:8b:3c:50:b1:
         0d:fc:37:eb:18:af:29:8a:65:19:d9:20:2a:82:00:37:3f:3f:
         30:fa:bd:36:d9:8a:3a:64:24:e7:40:31:72:25:ca:98:d2:4c:
         9d:dd:90:aa:42:43:a1:98:85:70:1f:4f:04:d5:93:27:0a:e7:
         d4:0a:01:77:10:5a:57:34:c9:c2:b7:93:ef:c7:31:13:03:49:
         52:c9:ad:f3:04:03:63:e5:4b:67:40:81:ed:05:01:24:30:8e:
         eb:24:f6:d1:80:89:38:cf:91:6e:62:ab:78:db:80:02:96:8a:
         50:7e:a3:e1:fa:73:99:32:88:87:8e:de:e4:14:1a:18:eb:48:
         66:e2:cc:82:46:88:3b:c5:83:46:1f:a4:c8:14:60:06:57:4b:
         38:fb:d3:8d:3a:85:6d:1a:9d:d1:cf:55:6e:3f:91:d2:ea:30:
         39:8d:21:f1:ee:4f:68:fe:25:18:ba:46:9c:cc:9c:86:d9:1e:
         81:bd:7d:f0:99:df:4a:cf:f5:12:d8:b9:be:6a:2a:05:67:97:
         4c:70:4d:45:6f:a2:f5:ef:f9:fe:da:2b:7e:40:2e:21:e3:80:
         16:7e:95:21:38:d7:f0:ea:d2:e7:cb:57:ba:48:bf:82:b7:5a:
         47:4b:46:aa:96:80:8e:1f:45:7b:0a:e1:7b:e4:01:86:77:96:
         ba:4d:23:de:f9:8d:55:d1:90:5b:08:7e:98:7f:c3:01:14:d3:
         fc:6c:12:33:ef:9c:1d:7a:4c:ad:88:de:0c:d7:7c:54:af:63:
         72:8e:f3:7b:eb:8d:5a:7a:c1:18:2f:cd:90:16:70:b7:a8:9c:
         ab:25:15:8c:3d:8e:85:6a:b3:d0:4c:de:11:f7:6b:f7:b1:04:
         cd:8e:17:4b:8b:09:66:dc:bf:21:4b:b8:51:c1:9b:d1:47:fd:
         b2:22:3d:4c:a7:df:9e:b2:b4:c1:a2:f4:ec:86:33:7c:f7:7f:
         f5:00:02:3b:a5:61:4a:64:04:fa:1b:80:8e:cb:e1:48:1a:8d:
         78:87:8e:f6:f3:4b:91:e5:e3:12:48:a6:69:db:29:a4:fc:d7:
         36:6a:61:35:77:fe:e6:f7:e7:f1:26:d5:3b:c3:44:bb:d8:e2:
         b4:b6:94:f8:96:41:a8:8f
-----BEGIN CERTIFICATE-----
MIIFxzCCA6+gAwIBAgIJAOtRztFSzI9BMA0GCSqGSIb3DQEBCwUAMGgxCzAJBgNV
BAYTAkJSMQswCQYDVQQIDAJTQzEMMAoGA1UEBwwDU0ZTMRAwDgYDVQQKDAdTYW5k
Ym94MSwwKgYDVQQDDCNDZXJ0aWZpY2F0aW9uIEF1dGhvcml0eSBDZXJ0aWZpY2F0
ZTAeFw0yMjA0MjEyMTA1MTRaFw0yNTAxMTUxODA1MTNaMGExCzAJBgNVBAYTAkJS
MQswCQYDVQQIDAJTQzEMMAoGA1UEBwwDU0ZTMRAwDgYDVQQKDAdTYW5kYm94MSUw
IwYDVQQDDBxTYW5ib3ggQXV0aG9yaXR5IENlcnRpZmljYXRlMIICIjANBgkqhkiG
9w0BAQEFAAOCAg8AMIICCgKCAgEA1J+08e/U+awAM0Nx4SEnAWCUwsO+kdOseUIw
1qfnMtjJcttm3gLZ360/ZKOU8WWWYQk5MxL/lATrQVO4CvftWptYds3NeEsg/MQZ
JUwYGxGWrM9YBBPtlCktJOAJM4GuOvXf1s08awyf5yafXfi4niVDaz+QYqF5f39q
aGGe5vq7tEzfjuX0MRYmb6fTlzFabmxR7CxwTJyFx1dF0jCJdQPjqeFIHBd/f61r
AZY3SL/Gv16LNSXoX4PkEfF7dMX5Y6hLZnWGGV9DPLJPAQCqLNkpNhdaVc+6v+6v
ALSiVD5fYi3yUrFBDw8VOEH3l5tyau3M8xxtmeT+3JAJpP8xPLAT/3PzLmXKH4UE
iIIcqFJ93pwq8uqX914Z0Ombnwt7SlW8tofNTJqfXrXSKna54qu4vfBT4vcrtnJq
a7zkksObzzg+UvPejS+U1hwmerHPW4vrTC866pBKKkJ9m8YhbMVDMxJp/8myVZSP
Z2OSpilClg7r+TyKK75nZt6vHY18zoqSzGCoMK0S0GlmFKYnUpvAeyVAIVecdw8L
KHpNDw7uJBQHlHANBd/5eZ02Zg14CrDqBIeoWqoga/ZL93a2MjEVJbI68XalwaJ3
RXx9LIBY2YExsQ0le806FiK9nDWed46go6J3hl+mrMwK+Qt6uauVH5aDyTsYZ9eI
7IVkivkCAwEAAaN7MHkwHwYDVR0jBBgwFoAUvItKVcPi2yg3Lh+JJp+kTO9xMNYw
HQYDVR0OBBYEFFzHE7FMDi5UqmJreqqDBN0WNP8/MCwGCWCGSAGG+EIBDQQfFh1P
cGVuU1NMIEdlbmVyYXRlZCBDZXJ0aWZpY2F0ZTAJBgNVHRMEAjAAMA0GCSqGSIb3
DQEBCwUAA4ICAQBXeMznYLxl3D1Z2EYHUG7HQsvr/HN3PYb42QxZaav5TSJLbGcg
4BPvEgYqVYel/3B2wEZIaXhFRTn0pJwsQ0pKGB9mi9o8GduBme6UH3XBwQbPcSqx
Dos8ULEN/DfrGK8pimUZ2SAqggA3Pz8w+r022Yo6ZCTnQDFyJcqY0kyd3ZCqQkOh
mIVwH08E1ZMnCufUCgF3EFpXNMnCt5PvxzETA0lSya3zBANj5UtnQIHtBQEkMI7r
JPbRgIk4z5FuYqt424AClopQfqPh+nOZMoiHjt7kFBoY60hm4syCRog7xYNGH6TI
FGAGV0s4+9ONOoVtGp3Rz1VuP5HS6jA5jSHx7k9o/iUYukaczJyG2R6BvX3wmd9K
z/US2Lm+aioFZ5dMcE1Fb6L17/n+2it+QC4h44AWfpUhONfw6tLny1e6SL+Ct1pH
S0aqloCOH0V7CuF75AGGd5a6TSPe+Y1V0ZBbCH6Yf8MBFNP8bBIz75wdekytiN4M
13xUr2NyjvN7641aesEYL82QFnC3qJyrJRWMPY6FarPQTN4R92v3sQTNjhdLiwlm
3L8hS7hRwZvRR/2yIj1Mp9+esrTBovTshjN893/1AAI7pWFKZAT6G4COy+FIGo14
h47280uR5eMSSKZp2ymk/Nc2amE1d/7m9+fxJtU7w0S72OK0tpT4lkGojw==
-----END CERTIFICATE-----
